; ModuleID = 'bench/libwebp/original/color_cache_utils.c.ll'
source_filename = "bench/libwebp/original/color_cache_utils.c.ll"
target datalayout = "e-m:e-p270:32:32-p271:32:32-p272:64:64-i64:64-i128:128-f80:128-n8:16:32:64-S128"
target triple = "x86_64-pc-linux-gnu"

; Function Attrs: nounwind uwtable
define hidden range(i32 0, 2) i32 @VP8LColorCacheInit(ptr noundef writeonly captures(none) initializes((0, 8)) %0, i32 noundef %1) local_unnamed_addr #0 {
  %3 = shl nuw i32 1, %1
  %4 = sext i32 %3 to i64
  %5 = tail call ptr @WebPSafeCalloc(i64 noundef %4, i64 noundef 4) #4
  store ptr %5, ptr %0, align 8
  %6 = icmp eq ptr %5, null
  br i1 %6, label %11, label %7

7:                                                ; preds = %2
  %8 = sub nsw i32 32, %1
  %9 = getelementptr inbounds nuw i8, ptr %0, i64 8
  store i32 %8, ptr %9, align 8
  %10 = getelementptr inbounds nuw i8, ptr %0, i64 12
  store i32 %1, ptr %10, align 4
  br label %11

11:                                               ; preds = %2, %7
  %.0 = phi i32 [ 1, %7 ], [ 0, %2 ]
  ret i32 %.0
}

declare ptr @WebPSafeCalloc(i64 noundef, i64 noundef) local_unnamed_addr #1

; Function Attrs: nounwind uwtable
define hidden void @VP8LColorCacheClear(ptr noundef %0) local_unnamed_addr #0 {
  %.not = icmp eq ptr %0, null
  br i1 %.not, label %4, label %2

2:                                                ; preds = %1
  %3 = load ptr, ptr %0, align 8
  tail call void @WebPSafeFree(ptr noundef %3) #4
  store ptr null, ptr %0, align 8
  br label %4

4:                                                ; preds = %2, %1
  ret void
}

declare void @WebPSafeFree(ptr noundef) local_unnamed_addr #1

; Function Attrs: mustprogress nofree norecurse nosync nounwind willreturn memory(readwrite, inaccessiblemem: none) uwtable
define hidden void @VP8LColorCacheCopy(ptr noundef readonly captures(none) %0, ptr noundef readonly captures(none) %1) local_unnamed_addr #2 {
  %3 = load ptr, ptr %1, align 8
  %4 = load ptr, ptr %0, align 8
  %5 = getelementptr inbounds nuw i8, ptr %1, i64 12
  %6 = load i32, ptr %5, align 4
  %7 = zext nneg i32 %6 to i64
  %8 = shl i64 4, %7
  tail call void @llvm.memcpy.p0.p0.i64(ptr align 4 %3, ptr align 4 %4, i64 %8, i1 false)
  ret void
}

; Function Attrs: mustprogress nocallback nofree nounwind willreturn memory(argmem: readwrite)
declare void @llvm.memcpy.p0.p0.i64(ptr noalias writeonly captures(none), ptr noalias readonly captures(none), i64, i1 immarg) #3


!llvm.module.flags = !{!0, !1, !2, !3}

!0 = !{i32 1, !"wchar_size", i32 4}
!1 = !{i32 8, !"PIC Level", i32 2}
!2 = !{i32 7, !"uwtable", i32 2}
!3 = !{i32 7, !"frame-pointer", i32 2}
